; ModuleID = 'source-C-CXX/53/442.c'
source_filename = "source-C-CXX/53/442.c"
target datalayout = "e-m:e-p270:32:32-p271:32:32-p272:64:64-i64:64-f80:128-n8:16:32:64-S128"
target triple = "x86_64-pc-linux-gnu"

@.str = private unnamed_addr constant [5 x i8] c"%d%d\00", align 1
@.str.1 = private unnamed_addr constant [3 x i8] c"%d\00", align 1

; Function Attrs: nofree nounwind sspstrong uwtable
define dso_local i32 @main() local_unnamed_addr #0 {
  %1 = alloca i32, align 4
  %2 = alloca i32, align 4
  %3 = bitcast i32* %1 to i8*
  call void @llvm.lifetime.start.p0i8(i64 4, i8* nonnull %3) #4
  %4 = bitcast i32* %2 to i8*
  call void @llvm.lifetime.start.p0i8(i64 4, i8* nonnull %4) #4
  %5 = call i32 (i8*, ...) @__isoc99_scanf(i8* getelementptr inbounds ([5 x i8], [5 x i8]* @.str, i64 0, i64 0), i32* nonnull %1, i32* nonnull %2)
  %6 = load i32, i32* %1, align 4, !tbaa !5
  %7 = add nsw i32 %6, -1
  %8 = load i32, i32* %2, align 4
  %9 = icmp eq i32 %6, 0
  br i1 %9, label %10, label %14

10:                                               ; preds = %28, %0
  %11 = phi i32 [ undef, %0 ], [ %30, %28 ]
  %12 = call i32 (i8*, ...) @printf(i8* nonnull dereferenceable(1) getelementptr inbounds ([3 x i8], [3 x i8]* @.str.1, i64 0, i64 0), i32 %11)
  %13 = call i32 @putchar(i32 10)
  call void @llvm.lifetime.end.p0i8(i64 4, i8* nonnull %4) #4
  call void @llvm.lifetime.end.p0i8(i64 4, i8* nonnull %3) #4
  ret i32 0

14:                                               ; preds = %0, %28
  %15 = phi i32 [ %32, %28 ], [ 0, %0 ]
  %16 = phi i32 [ %31, %28 ], [ 1, %0 ]
  %17 = phi i32 [ %30, %28 ], [ undef, %0 ]
  %18 = phi i32 [ %29, %28 ], [ 1, %0 ]
  %19 = mul nsw i32 %6, %18
  %20 = srem i32 %19, %7
  %21 = sdiv i32 %19, %7
  %22 = icmp eq i32 %20, 0
  br i1 %22, label %25, label %23

23:                                               ; preds = %14
  %24 = add nsw i32 %16, 1
  br label %28

25:                                               ; preds = %14
  %26 = add nsw i32 %8, %21
  %27 = add nsw i32 %15, 1
  br label %28

28:                                               ; preds = %23, %25
  %29 = phi i32 [ %24, %23 ], [ %26, %25 ]
  %30 = phi i32 [ %17, %23 ], [ %26, %25 ]
  %31 = phi i32 [ %24, %23 ], [ %16, %25 ]
  %32 = phi i32 [ 0, %23 ], [ %27, %25 ]
  %33 = icmp eq i32 %32, %6
  br i1 %33, label %10, label %14
}

; Function Attrs: argmemonly mustprogress nofree nosync nounwind willreturn
declare void @llvm.lifetime.start.p0i8(i64 immarg, i8* nocapture) #1

; Function Attrs: nofree nounwind
declare noundef i32 @__isoc99_scanf(i8* nocapture noundef readonly, ...) local_unnamed_addr #2

; Function Attrs: nofree nounwind
declare noundef i32 @printf(i8* nocapture noundef readonly, ...) local_unnamed_addr #2

; Function Attrs: argmemonly mustprogress nofree nosync nounwind willreturn
declare void @llvm.lifetime.end.p0i8(i64 immarg, i8* nocapture) #1

; Function Attrs: nofree nounwind
declare noundef i32 @putchar(i32 noundef) local_unnamed_addr #3


!llvm.module.flags = !{!0, !1, !2, !3}
!llvm.ident = !{!4}

!0 = !{i32 1, !"wchar_size", i32 4}
!1 = !{i32 7, !"PIC Level", i32 2}
!2 = !{i32 7, !"PIE Level", i32 2}
!3 = !{i32 7, !"uwtable", i32 1}
!4 = !{!"clang version 13.0.0"}
!5 = !{!6, !6, i64 0}
!6 = !{!"int", !7, i64 0}
!7 = !{!"omnipotent char", !8, i64 0}
!8 = !{!"Simple C/C++ TBAA"}
